target datalayout = "e-m:e-p270:32:32-p271:32:32-p272:64:64-i64:64-i128:128-f80:128-n8:16:32:64-S128"
target triple = "x86_64-pc-linux-gnu"

%struct.Curl_str = type { ptr, i64 }

; Function Attrs: nounwind uwtable
define internal ptr @altsvc_create(ptr noundef %0, ptr noundef %1, ptr noundef %2, ptr noundef %3, i64 noundef %4, i64 noundef %5) #0 {
  %7 = alloca ptr, align 8
  %8 = alloca ptr, align 8
  %9 = alloca ptr, align 8
  %10 = alloca ptr, align 8
  %11 = alloca ptr, align 8
  %12 = alloca i64, align 8
  %13 = alloca i64, align 8
  %14 = alloca i32, align 4
  %15 = alloca i32, align 4
  %16 = alloca i32, align 4
  store ptr %0, ptr %8, align 8, !tbaa !140
  store ptr %1, ptr %9, align 8, !tbaa !140
  store ptr %2, ptr %10, align 8, !tbaa !140
  store ptr %3, ptr %11, align 8, !tbaa !140
  store i64 %4, ptr %12, align 8, !tbaa !25
  store i64 %5, ptr %13, align 8, !tbaa !25
  call void @llvm.lifetime.start.p0(i64 4, ptr %14) #7
  %17 = load ptr, ptr %11, align 8, !tbaa !140
  %18 = getelementptr inbounds nuw %struct.Curl_str, ptr %17, i32 0, i32 0
  %19 = load ptr, ptr %18, align 8, !tbaa !137
  %20 = load ptr, ptr %11, align 8, !tbaa !140
  %21 = getelementptr inbounds nuw %struct.Curl_str, ptr %20, i32 0, i32 1
  %22 = load i64, ptr %21, align 8, !tbaa !139
  %23 = call i32 @Curl_alpn2alpnid(ptr noundef %19, i64 noundef %22)
  store i32 %23, ptr %14, align 4, !tbaa !3
  call void @llvm.lifetime.start.p0(i64 4, ptr %15) #7
  %24 = load ptr, ptr %10, align 8, !tbaa !140
  %25 = getelementptr inbounds nuw %struct.Curl_str, ptr %24, i32 0, i32 0
  %26 = load ptr, ptr %25, align 8, !tbaa !137
  %27 = load ptr, ptr %10, align 8, !tbaa !140
  %28 = getelementptr inbounds nuw %struct.Curl_str, ptr %27, i32 0, i32 1
  %29 = load i64, ptr %28, align 8, !tbaa !139
  %30 = call i32 @Curl_alpn2alpnid(ptr noundef %26, i64 noundef %29)
  store i32 %30, ptr %15, align 4, !tbaa !3
  %31 = load i32, ptr %15, align 4, !tbaa !3
  %32 = icmp ne i32 %31, 0
  br i1 %32, label %33, label %36

33:                                               ; preds = %6
  %34 = load i32, ptr %14, align 4, !tbaa !3
  %35 = icmp ne i32 %34, 0
  br i1 %35, label %37, label %36

36:                                               ; preds = %33, %6
  store ptr null, ptr %7, align 8
  store i32 1, ptr %16, align 4
  br label %55

37:                                               ; preds = %33
  %38 = load ptr, ptr %8, align 8, !tbaa !140
  %39 = getelementptr inbounds nuw %struct.Curl_str, ptr %38, i32 0, i32 0
  %40 = load ptr, ptr %39, align 8, !tbaa !137
  %41 = load ptr, ptr %8, align 8, !tbaa !140
  %42 = getelementptr inbounds nuw %struct.Curl_str, ptr %41, i32 0, i32 1
  %43 = load i64, ptr %42, align 8, !tbaa !139
  %44 = load ptr, ptr %9, align 8, !tbaa !140
  %45 = getelementptr inbounds nuw %struct.Curl_str, ptr %44, i32 0, i32 0
  %46 = load ptr, ptr %45, align 8, !tbaa !137
  %47 = load ptr, ptr %9, align 8, !tbaa !140
  %48 = getelementptr inbounds nuw %struct.Curl_str, ptr %47, i32 0, i32 1
  %49 = load i64, ptr %48, align 8, !tbaa !139
  %50 = load i32, ptr %15, align 4, !tbaa !3
  %51 = load i32, ptr %14, align 4, !tbaa !3
  %52 = load i64, ptr %12, align 8, !tbaa !25
  %53 = load i64, ptr %13, align 8, !tbaa !25
  %54 = call ptr @altsvc_createid(ptr noundef %40, i64 noundef %43, ptr noundef %46, i64 noundef %49, i32 noundef %50, i32 noundef %51, i64 noundef %52, i64 noundef %53)
  store ptr %54, ptr %7, align 8
  store i32 1, ptr %16, align 4
  br label %55

55:                                               ; preds = %37, %36
  call void @llvm.lifetime.end.p0(i64 4, ptr %15) #7
  call void @llvm.lifetime.end.p0(i64 4, ptr %14) #7
  %56 = load ptr, ptr %7, align 8
  ret ptr %56
}