; Function Attrs: nounwind uwtable
define internal fastcc ptr @altsvc_create(ptr noundef nonnull readonly captures(none) %0, ptr noundef nonnull readonly captures(none) %1, ptr noundef nonnull readonly captures(none) %2, ptr %.0.val, i64 %.8.val, i64 noundef %3, i64 noundef %4) unnamed_addr #1 {
  %6 = tail call i32 @Curl_alpn2alpnid(ptr noundef %.0.val, i64 noundef %.8.val) #12
  %7 = load ptr, ptr %2, align 8, !tbaa !18
  %8 = getelementptr inbounds nuw i8, ptr %2, i64 8
  %9 = load i64, ptr %8, align 8, !tbaa !20
  %10 = tail call i32 @Curl_alpn2alpnid(ptr noundef %7, i64 noundef %9) #12
  %11 = icmp ne i32 %10, 0
  %12 = icmp ne i32 %6, 0
  %or.cond = select i1 %11, i1 %12, i1 false
  br i1 %or.cond, label %13, label %21

13:                                               ; preds = %5
  %14 = load ptr, ptr %0, align 8, !tbaa !18
  %15 = getelementptr inbounds nuw i8, ptr %0, i64 8
  %16 = load i64, ptr %15, align 8, !tbaa !20
  %17 = load ptr, ptr %1, align 8, !tbaa !18
  %18 = getelementptr inbounds nuw i8, ptr %1, i64 8
  %19 = load i64, ptr %18, align 8, !tbaa !20
  %20 = tail call fastcc ptr @altsvc_createid(ptr noundef %14, i64 noundef %16, ptr noundef %17, i64 noundef %19, i32 noundef %10, i32 noundef %6, i64 noundef %3, i64 noundef %4)
  br label %21

21:                                               ; preds = %5, %13
  %.0 = phi ptr [ %20, %13 ], [ null, %5 ]
  ret ptr %.0
}